target datalayout = "e-m:e-p270:32:32-p271:32:32-p272:64:64-i64:64-i128:128-f80:128-n8:16:32:64-S128"
target triple = "x86_64-pc-linux-gnu"

@.str.7 = private unnamed_addr constant [13 x i8] c"initializing\00", align 1
@.str.8 = private unnamed_addr constant [15 x i8] c"scanning table\00", align 1
@.str.9 = private unnamed_addr constant [20 x i8] c"sorting live tuples\00", align 1
@.str.10 = private unnamed_addr constant [20 x i8] c"sorting dead tuples\00", align 1
@.str.11 = private unnamed_addr constant [23 x i8] c"loading tuples in tree\00", align 1

; Function Attrs: nounwind uwtable
define dso_local ptr @btbuildphasename(i64 noundef %0) #0 {
  %2 = alloca ptr, align 8
  %3 = alloca i64, align 8
  store i64 %0, ptr %3, align 8
  %4 = load i64, ptr %3, align 8
  switch i64 %4, label %10 [
    i64 1, label %5
    i64 2, label %6
    i64 3, label %7
    i64 4, label %8
    i64 5, label %9
  ]

5:                                                ; preds = %1
  store ptr @.str.7, ptr %2, align 8
  br label %11

6:                                                ; preds = %1
  store ptr @.str.8, ptr %2, align 8
  br label %11

7:                                                ; preds = %1
  store ptr @.str.9, ptr %2, align 8
  br label %11

8:                                                ; preds = %1
  store ptr @.str.10, ptr %2, align 8
  br label %11

9:                                                ; preds = %1
  store ptr @.str.11, ptr %2, align 8
  br label %11

10:                                               ; preds = %1
  store ptr null, ptr %2, align 8
  br label %11

11:                                               ; preds = %10, %9, %8, %7, %6, %5
  %12 = load ptr, ptr %2, align 8
  ret ptr %12
}