; Function Attrs: mustprogress nofree norecurse nosync nounwind willreturn memory(none) uwtable
define dso_local noundef ptr @btbuildphasename(i64 noundef %0) local_unnamed_addr #10 {
  %switch.tableidx = add i64 %0, -1
  %2 = icmp ult i64 %switch.tableidx, 5
  br i1 %2, label %switch.lookup, label %3

switch.lookup:                                    ; preds = %1
  %switch.gep = getelementptr inbounds nuw [5 x ptr], ptr @switch.table.btbuildphasename, i64 0, i64 %switch.tableidx
  %switch.load = load ptr, ptr %switch.gep, align 8
  br label %3

3:                                                ; preds = %1, %switch.lookup
  %.0 = phi ptr [ %switch.load, %switch.lookup ], [ null, %1 ]
  ret ptr %.0
}